target datalayout = "e-m:e-p270:32:32-p271:32:32-p272:64:64-i64:64-i128:128-f80:128-n8:16:32:64-S128"
target triple = "x86_64-pc-linux-gnu"

%struct.redisDb = type { ptr, ptr, ptr, ptr, ptr, ptr, ptr, i32, i64, i64, ptr }
%struct.redisObject = type { i32, i32, ptr }

@slaveKeysWithExpire = dso_local global ptr null, align 8

; Function Attrs: nounwind uwtable
define dso_local void @rememberSlaveKeyWithExpire(ptr noundef %0, ptr noundef %1) #0 {
  %3 = alloca ptr, align 8
  %4 = alloca ptr, align 8
  %5 = alloca ptr, align 8
  %6 = alloca i64, align 8
  store ptr %0, ptr %3, align 8, !tbaa !5
  store ptr %1, ptr %4, align 8, !tbaa !16
  %7 = load ptr, ptr @slaveKeysWithExpire, align 8, !tbaa !76
  %8 = icmp eq ptr %7, null
  br i1 %8, label %9, label %11

9:                                                ; preds = %2
  %10 = call ptr @dictCreate(ptr noundef @rememberSlaveKeyWithExpire.dt)
  store ptr %10, ptr @slaveKeysWithExpire, align 8, !tbaa !76
  br label %11

11:                                               ; preds = %9, %2
  %12 = load ptr, ptr %3, align 8, !tbaa !5
  %13 = getelementptr inbounds nuw %struct.redisDb, ptr %12, i32 0, i32 7
  %14 = load i32, ptr %13, align 8, !tbaa !78
  %15 = icmp sgt i32 %14, 63
  br i1 %15, label %16, label %17

16:                                               ; preds = %11
  br label %49

17:                                               ; preds = %11
  call void @llvm.lifetime.start.p0(i64 8, ptr %5) #8
  %18 = load ptr, ptr @slaveKeysWithExpire, align 8, !tbaa !76
  %19 = load ptr, ptr %4, align 8, !tbaa !16
  %20 = getelementptr inbounds nuw %struct.redisObject, ptr %19, i32 0, i32 2
  %21 = load ptr, ptr %20, align 8, !tbaa !79
  %22 = call ptr @dictAddOrFind(ptr noundef %18, ptr noundef %21)
  store ptr %22, ptr %5, align 8, !tbaa !10
  %23 = load ptr, ptr %5, align 8, !tbaa !10
  %24 = call ptr @dictGetKey(ptr noundef %23)
  %25 = load ptr, ptr %4, align 8, !tbaa !16
  %26 = getelementptr inbounds nuw %struct.redisObject, ptr %25, i32 0, i32 2
  %27 = load ptr, ptr %26, align 8, !tbaa !79
  %28 = icmp eq ptr %24, %27
  br i1 %28, label %29, label %37

29:                                               ; preds = %17
  %30 = load ptr, ptr @slaveKeysWithExpire, align 8, !tbaa !76
  %31 = load ptr, ptr %5, align 8, !tbaa !10
  %32 = load ptr, ptr %4, align 8, !tbaa !16
  %33 = getelementptr inbounds nuw %struct.redisObject, ptr %32, i32 0, i32 2
  %34 = load ptr, ptr %33, align 8, !tbaa !79
  %35 = call ptr @sdsdup(ptr noundef %34)
  call void @dictSetKey(ptr noundef %30, ptr noundef %31, ptr noundef %35)
  %36 = load ptr, ptr %5, align 8, !tbaa !10
  call void @dictSetUnsignedIntegerVal(ptr noundef %36, i64 noundef 0)
  br label %37

37:                                               ; preds = %29, %17
  call void @llvm.lifetime.start.p0(i64 8, ptr %6) #8
  %38 = load ptr, ptr %5, align 8, !tbaa !10
  %39 = call i64 @dictGetUnsignedIntegerVal(ptr noundef %38)
  store i64 %39, ptr %6, align 8, !tbaa !23
  %40 = load ptr, ptr %3, align 8, !tbaa !5
  %41 = getelementptr inbounds nuw %struct.redisDb, ptr %40, i32 0, i32 7
  %42 = load i32, ptr %41, align 8, !tbaa !78
  %43 = zext i32 %42 to i64
  %44 = shl i64 1, %43
  %45 = load i64, ptr %6, align 8, !tbaa !23
  %46 = or i64 %45, %44
  store i64 %46, ptr %6, align 8, !tbaa !23
  %47 = load ptr, ptr %5, align 8, !tbaa !10
  %48 = load i64, ptr %6, align 8, !tbaa !23
  call void @dictSetUnsignedIntegerVal(ptr noundef %47, i64 noundef %48)
  call void @llvm.lifetime.end.p0(i64 8, ptr %6) #8
  call void @llvm.lifetime.end.p0(i64 8, ptr %5) #8
  br label %49

49:                                               ; preds = %37, %16
  ret void
}