; Function Attrs: nounwind uwtable
define dso_local void @rememberSlaveKeyWithExpire(ptr noundef readonly captures(none) %0, ptr noundef readonly captures(none) %1) local_unnamed_addr #0 {
  %3 = load ptr, ptr @slaveKeysWithExpire, align 8, !tbaa !70
  %4 = icmp eq ptr %3, null
  br i1 %4, label %5, label %7

5:                                                ; preds = %2
  %6 = tail call ptr @dictCreate(ptr noundef nonnull @rememberSlaveKeyWithExpire.dt) #10
  store ptr %6, ptr @slaveKeysWithExpire, align 8, !tbaa !70
  br label %7

7:                                                ; preds = %5, %2
  %8 = phi ptr [ %6, %5 ], [ %3, %2 ]
  %9 = getelementptr inbounds nuw i8, ptr %0, i64 56
  %10 = load i32, ptr %9, align 8, !tbaa !72
  %11 = icmp sgt i32 %10, 63
  br i1 %11, label %28, label %12

12:                                               ; preds = %7
  %13 = getelementptr inbounds nuw i8, ptr %1, i64 8
  %14 = load ptr, ptr %13, align 8, !tbaa !73
  %15 = tail call ptr @dictAddOrFind(ptr noundef %8, ptr noundef %14) #10
  %16 = tail call ptr @dictGetKey(ptr noundef %15) #10
  %17 = load ptr, ptr %13, align 8, !tbaa !73
  %18 = icmp eq ptr %16, %17
  br i1 %18, label %19, label %22

19:                                               ; preds = %12
  %20 = load ptr, ptr @slaveKeysWithExpire, align 8, !tbaa !70
  %21 = tail call ptr @sdsdup(ptr noundef %17) #10
  tail call void @dictSetKey(ptr noundef %20, ptr noundef %15, ptr noundef %21) #10
  tail call void @dictSetUnsignedIntegerVal(ptr noundef %15, i64 noundef 0) #10
  br label %22

22:                                               ; preds = %19, %12
  %23 = tail call i64 @dictGetUnsignedIntegerVal(ptr noundef %15) #10
  %24 = load i32, ptr %9, align 8, !tbaa !72
  %25 = zext nneg i32 %24 to i64
  %26 = shl nuw i64 1, %25
  %27 = or i64 %26, %23
  tail call void @dictSetUnsignedIntegerVal(ptr noundef %15, i64 noundef %27) #10
  br label %28

28:                                               ; preds = %7, %22
  ret void
}